target datalayout = "e-m:e-p270:32:32-p271:32:32-p272:64:64-i64:64-i128:128-f80:128-n8:16:32:64-S128"
target triple = "x86_64-pc-linux-gnu"

%struct.b2AABB = type { %struct.b2Vec2, %struct.b2Vec2 }
%struct.b2Vec2 = type { float, float }

; Function Attrs: inlinehint nounwind uwtable
define internal <2 x float> @b2Sub(<2 x float> %0, <2 x float> %1) #2 {
  %3 = alloca %struct.b2Vec2, align 4
  %4 = alloca %struct.b2Vec2, align 4
  %5 = alloca %struct.b2Vec2, align 4
  store <2 x float> %0, ptr %4, align 4
  store <2 x float> %1, ptr %5, align 4
  %6 = getelementptr inbounds nuw %struct.b2Vec2, ptr %3, i32 0, i32 0
  %7 = getelementptr inbounds nuw %struct.b2Vec2, ptr %4, i32 0, i32 0
  %8 = load float, ptr %7, align 4, !tbaa !3
  %9 = getelementptr inbounds nuw %struct.b2Vec2, ptr %5, i32 0, i32 0
  %10 = load float, ptr %9, align 4, !tbaa !3
  %11 = fsub float %8, %10
  store float %11, ptr %6, align 4, !tbaa !3
  %12 = getelementptr inbounds nuw %struct.b2Vec2, ptr %3, i32 0, i32 1
  %13 = getelementptr inbounds nuw %struct.b2Vec2, ptr %4, i32 0, i32 1
  %14 = load float, ptr %13, align 4, !tbaa !8
  %15 = getelementptr inbounds nuw %struct.b2Vec2, ptr %5, i32 0, i32 1
  %16 = load float, ptr %15, align 4, !tbaa !8
  %17 = fsub float %14, %16
  store float %17, ptr %12, align 4, !tbaa !8
  %18 = load <2 x float>, ptr %3, align 4
  ret <2 x float> %18
}

; Function Attrs: nounwind uwtable
define zeroext i1 @b2IsValidAABB(<2 x float> %0, <2 x float> %1) #0 {
  %3 = alloca %struct.b2AABB, align 4
  %4 = alloca %struct.b2Vec2, align 4
  %5 = alloca i8, align 1
  %6 = getelementptr inbounds nuw { <2 x float>, <2 x float> }, ptr %3, i32 0, i32 0
  store <2 x float> %0, ptr %6, align 4
  %7 = getelementptr inbounds nuw { <2 x float>, <2 x float> }, ptr %3, i32 0, i32 1
  store <2 x float> %1, ptr %7, align 4
  call void @llvm.lifetime.start.p0(i64 8, ptr %4) #7
  %8 = getelementptr inbounds nuw %struct.b2AABB, ptr %3, i32 0, i32 1
  %9 = getelementptr inbounds nuw %struct.b2AABB, ptr %3, i32 0, i32 0
  %10 = load <2 x float>, ptr %8, align 4
  %11 = load <2 x float>, ptr %9, align 4
  %12 = call <2 x float> @b2Sub(<2 x float> %10, <2 x float> %11)
  store <2 x float> %12, ptr %4, align 4
  call void @llvm.lifetime.start.p0(i64 1, ptr %5) #7
  %13 = getelementptr inbounds nuw %struct.b2Vec2, ptr %4, i32 0, i32 0
  %14 = load float, ptr %13, align 4, !tbaa !3
  %15 = fcmp oge float %14, 0.000000e+00
  br i1 %15, label %16, label %20

16:                                               ; preds = %2
  %17 = getelementptr inbounds nuw %struct.b2Vec2, ptr %4, i32 0, i32 1
  %18 = load float, ptr %17, align 4, !tbaa !8
  %19 = fcmp oge float %18, 0.000000e+00
  br label %20

20:                                               ; preds = %16, %2
  %21 = phi i1 [ false, %2 ], [ %19, %16 ]
  %22 = zext i1 %21 to i8
  store i8 %22, ptr %5, align 1, !tbaa !9
  %23 = load i8, ptr %5, align 1, !tbaa !9, !range !11, !noundef !12
  %24 = trunc i8 %23 to i1
  br i1 %24, label %25, label %33

25:                                               ; preds = %20
  %26 = getelementptr inbounds nuw %struct.b2AABB, ptr %3, i32 0, i32 0
  %27 = load <2 x float>, ptr %26, align 4
  %28 = call zeroext i1 @b2IsValidVec2(<2 x float> %27)
  br i1 %28, label %29, label %33

29:                                               ; preds = %25
  %30 = getelementptr inbounds nuw %struct.b2AABB, ptr %3, i32 0, i32 1
  %31 = load <2 x float>, ptr %30, align 4
  %32 = call zeroext i1 @b2IsValidVec2(<2 x float> %31)
  br label %33

33:                                               ; preds = %29, %25, %20
  %34 = phi i1 [ false, %25 ], [ false, %20 ], [ %32, %29 ]
  %35 = zext i1 %34 to i8
  store i8 %35, ptr %5, align 1, !tbaa !9
  %36 = load i8, ptr %5, align 1, !tbaa !9, !range !11, !noundef !12
  %37 = trunc i8 %36 to i1
  call void @llvm.lifetime.end.p0(i64 1, ptr %5) #7
  call void @llvm.lifetime.end.p0(i64 8, ptr %4) #7
  ret i1 %37
}