; Function Attrs: nounwind uwtable
define zeroext i1 @b2IsValidAABB(<2 x float> %0, <2 x float> %1) local_unnamed_addr #0 {
  %3 = fsub <2 x float> %1, %0
  %4 = extractelement <2 x float> %3, i64 0
  %5 = fsub <2 x float> %1, %0
  %6 = extractelement <2 x float> %5, i64 1
  %7 = fcmp oge float %4, 0.000000e+00
  %8 = fcmp oge float %6, 0.000000e+00
  %9 = select i1 %7, i1 %8, i1 false
  br i1 %9, label %10, label %14

10:                                               ; preds = %2
  %11 = tail call zeroext i1 @b2IsValidVec2(<2 x float> %0) #4
  br i1 %11, label %12, label %14

12:                                               ; preds = %10
  %13 = tail call zeroext i1 @b2IsValidVec2(<2 x float> %1) #4
  br label %14

14:                                               ; preds = %12, %10, %2
  %15 = phi i1 [ false, %10 ], [ false, %2 ], [ %13, %12 ]
  ret i1 %15
}